target datalayout = "e-m:e-p270:32:32-p271:32:32-p272:64:64-i64:64-i128:128-f80:128-n8:16:32:64-S128"
target triple = "x86_64-pc-linux-gnu"

%struct._packet_info = type { ptr, ptr, i32, i32, %struct.nstime_t, %struct.nstime_t, %struct.nstime_t, i8, ptr, ptr, ptr, ptr, %struct._address, %struct._address, %struct._address, %struct._address, %struct._address, %struct._address, i32, ptr, i8, [3 x i8], %struct.anon, i32, i32, i32, i32, ptr, i8, ptr, ptr, i16, i16, i32, i32, i16, i32, i32, ptr, ptr, ptr, i8, i8, i16, i16, i16, i32, i16, i16, ptr, ptr, ptr, ptr, ptr, i32, i32 }
%struct.nstime_t = type { i64, i32 }
%struct._address = type { i32, i32, ptr, ptr }
%struct.anon = type { i8, [3 x i8] }

@cmpp_desegment = internal global i8 1, align 1

; Function Attrs: null_pointer_is_valid sspstrong uwtable
define internal i32 @dissect_cmpp(ptr noundef %0, ptr noundef %1, ptr noundef %2, ptr noundef %3) #0 {
  %5 = alloca i32, align 4
  %6 = alloca ptr, align 8
  %7 = alloca ptr, align 8
  %8 = alloca ptr, align 8
  %9 = alloca ptr, align 8
  %10 = alloca i32, align 4
  %11 = alloca i32, align 4
  %12 = alloca i32, align 4
  %13 = alloca i32, align 4
  store ptr %0, ptr %6, align 8
  store ptr %1, ptr %7, align 8
  store ptr %2, ptr %8, align 8
  store ptr %3, ptr %9, align 8
  call void @llvm.lifetime.start.p0(i64 4, ptr %10) #3
  call void @llvm.lifetime.start.p0(i64 4, ptr %11) #3
  call void @llvm.lifetime.start.p0(i64 4, ptr %12) #3
  %14 = load ptr, ptr %6, align 8
  %15 = call i32 @tvb_captured_length(ptr noundef %14)
  store i32 %15, ptr %12, align 4
  %16 = load i32, ptr %12, align 4
  %17 = icmp ult i32 %16, 12
  br i1 %17, label %18, label %19

18:                                               ; preds = %4
  store i32 0, ptr %5, align 4
  store i32 1, ptr %13, align 4
  br label %47

19:                                               ; preds = %4
  %20 = load ptr, ptr %6, align 8
  %21 = call i32 @tvb_get_ntohl(ptr noundef %20, i32 noundef 0)
  store i32 %21, ptr %10, align 4
  %22 = load ptr, ptr %6, align 8
  %23 = call i32 @tvb_get_ntohl(ptr noundef %22, i32 noundef 4)
  store i32 %23, ptr %11, align 4
  %24 = load i32, ptr %10, align 4
  %25 = icmp ult i32 %24, 12
  br i1 %25, label %29, label %26

26:                                               ; preds = %19
  %27 = load i32, ptr %10, align 4
  %28 = icmp ugt i32 %27, 1000
  br i1 %28, label %29, label %30

29:                                               ; preds = %26, %19
  store i32 0, ptr %5, align 4
  store i32 1, ptr %13, align 4
  br label %47

30:                                               ; preds = %26
  %31 = load i32, ptr %11, align 4
  %32 = call ptr @try_val_to_str(i32 noundef %31, ptr noundef @vals_command_Id)
  %33 = icmp eq ptr %32, null
  br i1 %33, label %34, label %35

34:                                               ; preds = %30
  store i32 0, ptr %5, align 4
  store i32 1, ptr %13, align 4
  br label %47

35:                                               ; preds = %30
  %36 = load ptr, ptr %7, align 8
  %37 = getelementptr inbounds nuw %struct._packet_info, ptr %36, i32 0, i32 1
  %38 = load ptr, ptr %37, align 8
  call void @col_clear(ptr noundef %38, i32 noundef 25)
  %39 = load ptr, ptr %6, align 8
  %40 = load ptr, ptr %7, align 8
  %41 = load ptr, ptr %8, align 8
  %42 = load i8, ptr @cmpp_desegment, align 1, !range !6, !noundef !7
  %43 = trunc i8 %42 to i1
  %44 = load ptr, ptr %9, align 8
  call void @tcp_dissect_pdus(ptr noundef %39, ptr noundef %40, ptr noundef %41, i1 noundef zeroext %43, i32 noundef 12, ptr noundef @get_cmpp_pdu_len, ptr noundef @dissect_cmpp_tcp_pdu, ptr noundef %44)
  %45 = load ptr, ptr %6, align 8
  %46 = call i32 @tvb_reported_length(ptr noundef %45)
  store i32 %46, ptr %5, align 4
  store i32 1, ptr %13, align 4
  br label %47

47:                                               ; preds = %35, %34, %29, %18
  call void @llvm.lifetime.end.p0(i64 4, ptr %12) #3
  call void @llvm.lifetime.end.p0(i64 4, ptr %11) #3
  call void @llvm.lifetime.end.p0(i64 4, ptr %10) #3
  %48 = load i32, ptr %5, align 4
  ret i32 %48
}