; Function Attrs: null_pointer_is_valid sspstrong uwtable
define internal i32 @dissect_cmpp(ptr noundef %0, ptr noundef %1, ptr noundef %2, ptr noundef %3) #0 {
  %5 = tail call i32 @tvb_captured_length(ptr noundef %0)
  %6 = icmp ult i32 %5, 12
  br i1 %6, label %18, label %7

7:                                                ; preds = %4
  %8 = tail call i32 @tvb_get_ntohl(ptr noundef %0, i32 noundef 0)
  %9 = tail call i32 @tvb_get_ntohl(ptr noundef %0, i32 noundef 4)
  %10 = add i32 %8, -1001
  %or.cond = icmp ult i32 %10, -989
  br i1 %or.cond, label %18, label %11

11:                                               ; preds = %7
  %12 = tail call ptr @try_val_to_str(i32 noundef %9, ptr noundef nonnull @vals_command_Id)
  %13 = icmp eq ptr %12, null
  br i1 %13, label %18, label %14

14:                                               ; preds = %11
  %15 = getelementptr inbounds nuw i8, ptr %1, i64 8
  %16 = load ptr, ptr %15, align 8
  tail call void @col_clear(ptr noundef %16, i32 noundef 25)
  tail call void @tcp_dissect_pdus(ptr noundef %0, ptr noundef %1, ptr noundef %2, i1 noundef zeroext true, i32 noundef 12, ptr noundef nonnull @get_cmpp_pdu_len, ptr noundef nonnull @dissect_cmpp_tcp_pdu, ptr noundef %3)
  %17 = tail call i32 @tvb_reported_length(ptr noundef %0)
  br label %18

18:                                               ; preds = %11, %7, %4, %14
  %.0 = phi i32 [ %17, %14 ], [ 0, %4 ], [ 0, %7 ], [ 0, %11 ]
  ret i32 %.0
}